; Function Attrs: mustprogress nounwind uwtable
define hidden void @_ZN19DeoptimizationScopeC2Ev(ptr nocapture noundef nonnull writeonly align 8 dereferenceable(8) %0) unnamed_addr #0 align 2 {
  store i64 0, ptr %0, align 8
  %2 = load ptr, ptr @NMethodState_lock, align 8
  %.not.i.i = icmp eq ptr %2, null
  br i1 %.not.i.i, label %_ZN11MutexLockerC2EP5MutexNS0_18SafepointCheckFlagE.exit.thread, label %4

_ZN11MutexLockerC2EP5MutexNS0_18SafepointCheckFlagE.exit.thread: ; preds = %1
  %3 = load i64, ptr @_ZN19DeoptimizationScope20_committed_deopt_genE, align 8
  store i64 %3, ptr %0, align 8
  br label %_ZN11MutexLockerD2Ev.exit

4:                                                ; preds = %1
  tail call void @_ZN5Mutex28lock_without_safepoint_checkEv(ptr noundef nonnull align 8 dereferenceable(104) %2) #22
  %5 = load i64, ptr @_ZN19DeoptimizationScope20_committed_deopt_genE, align 8
  store i64 %5, ptr %0, align 8
  tail call void @_ZN5Mutex6unlockEv(ptr noundef nonnull align 8 dereferenceable(104) %2) #22
  br label %_ZN11MutexLockerD2Ev.exit

_ZN11MutexLockerD2Ev.exit:                        ; preds = %_ZN11MutexLockerC2EP5MutexNS0_18SafepointCheckFlagE.exit.thread, %4
  ret void
}